target datalayout = "e-m:e-p270:32:32-p271:32:32-p272:64:64-i64:64-i128:128-f80:128-n8:16:32:64-S128"
target triple = "x86_64-pc-linux-gnu"

%struct.jit_State = type { %struct.GCtrace, ptr, ptr, ptr, ptr, ptr, ptr, i32, i32, i32, i8, i8, %struct.IRType1, i8, %struct.FoldState, ptr, i32, i32, i32, i32, i32, i32, i32, [1 x i32], [5 x %union.TValue], [3 x %union.TValue], ptr, i32, i32, i32, i32, ptr, ptr, i32, i32, i8, ptr, i32, i32, i16, [101 x i16], [258 x i32], [15 x i32], [16 x ptr], [64 x %struct.HotPenalty], i32, [16 x %struct.BPropEntry], i32, %struct.ScEvEntry, ptr, i32, i32, i32, ptr, i32, i32, ptr, ptr, ptr, i64, i64, %union.TValue, ptr, i32, i32 }
%struct.GCtrace = type { %struct.GCRef, i8, i8, i16, i32, i32, %struct.GCRef, ptr, i32, i32, ptr, ptr, %struct.GCRef, %struct.MRef, i32, i32, ptr, i32, i16, i16, i16, i16, i16, i16, i16, i8, i8, i8, i8 }
%struct.GCRef = type { i64 }
%struct.MRef = type { i64 }
%struct.IRType1 = type { i8 }
%struct.FoldState = type { %union.IRIns, [2 x %union.IRIns], [2 x %union.IRIns] }
%union.IRIns = type { %struct.GCRef }
%struct.HotPenalty = type { %struct.MRef, i16, i16 }
%struct.BPropEntry = type { i16, i16, i32 }
%struct.ScEvEntry = type { %struct.MRef, i16, i16, i16, i16, %struct.IRType1, i8 }
%union.TValue = type { i64 }
%struct.anon.0 = type { i32, %struct.IRType1, i8, i8, i8 }
%struct.anon = type { i16, i16, i16, i16 }

; Function Attrs: alwaysinline nounwind uwtable
define internal i32 @lj_ir_nextins(ptr noundef %0) #5 {
  %2 = alloca ptr, align 8
  %3 = alloca i32, align 4
  store ptr %0, ptr %2, align 8, !tbaa !4
  call void @llvm.lifetime.start.p0(i64 4, ptr %3) #10
  %4 = load ptr, ptr %2, align 8, !tbaa !4
  %5 = getelementptr inbounds nuw %struct.jit_State, ptr %4, i32 0, i32 0
  %6 = getelementptr inbounds nuw %struct.GCtrace, ptr %5, i32 0, i32 4
  %7 = load i32, ptr %6, align 4, !tbaa !40
  store i32 %7, ptr %3, align 4, !tbaa !32
  %8 = load i32, ptr %3, align 4, !tbaa !32
  %9 = load ptr, ptr %2, align 8, !tbaa !4
  %10 = getelementptr inbounds nuw %struct.jit_State, ptr %9, i32 0, i32 27
  %11 = load i32, ptr %10, align 8, !tbaa !31
  %12 = icmp uge i32 %8, %11
  %13 = xor i1 %12, true
  %14 = xor i1 %13, true
  %15 = zext i1 %14 to i32
  %16 = sext i32 %15 to i64
  %17 = call i64 @llvm.expect.i64(i64 %16, i64 0)
  %18 = icmp ne i64 %17, 0
  br i1 %18, label %19, label %21

19:                                               ; preds = %1
  %20 = load ptr, ptr %2, align 8, !tbaa !4
  call void @lj_ir_growtop(ptr noundef %20)
  br label %21

21:                                               ; preds = %19, %1
  %22 = load i32, ptr %3, align 4, !tbaa !32
  %23 = add i32 %22, 1
  %24 = load ptr, ptr %2, align 8, !tbaa !4
  %25 = getelementptr inbounds nuw %struct.jit_State, ptr %24, i32 0, i32 0
  %26 = getelementptr inbounds nuw %struct.GCtrace, ptr %25, i32 0, i32 4
  store i32 %23, ptr %26, align 4, !tbaa !40
  %27 = load i32, ptr %3, align 4, !tbaa !32
  call void @llvm.lifetime.end.p0(i64 4, ptr %3) #10
  ret i32 %27
}

; Function Attrs: nounwind uwtable
define hidden i32 @lj_ir_emit(ptr noundef %0) #3 {
  %2 = alloca ptr, align 8
  %3 = alloca i32, align 4
  %4 = alloca ptr, align 8
  %5 = alloca i32, align 4
  %6 = alloca %struct.IRType1, align 1
  store ptr %0, ptr %2, align 8, !tbaa !4
  call void @llvm.lifetime.start.p0(i64 4, ptr %3) #10
  %7 = load ptr, ptr %2, align 8, !tbaa !4
  %8 = call i32 @lj_ir_nextins(ptr noundef %7)
  store i32 %8, ptr %3, align 4, !tbaa !32
  call void @llvm.lifetime.start.p0(i64 8, ptr %4) #10
  %9 = load ptr, ptr %2, align 8, !tbaa !4
  %10 = getelementptr inbounds nuw %struct.jit_State, ptr %9, i32 0, i32 0
  %11 = getelementptr inbounds nuw %struct.GCtrace, ptr %10, i32 0, i32 7
  %12 = load ptr, ptr %11, align 8, !tbaa !34
  %13 = load i32, ptr %3, align 4, !tbaa !32
  %14 = zext i32 %13 to i64
  %15 = getelementptr inbounds nuw %union.IRIns, ptr %12, i64 %14
  store ptr %15, ptr %4, align 8, !tbaa !30
  call void @llvm.lifetime.start.p0(i64 4, ptr %5) #10
  %16 = load ptr, ptr %2, align 8, !tbaa !4
  %17 = getelementptr inbounds nuw %struct.jit_State, ptr %16, i32 0, i32 14
  %18 = getelementptr inbounds nuw %struct.FoldState, ptr %17, i32 0, i32 0
  %19 = getelementptr inbounds nuw %struct.anon.0, ptr %18, i32 0, i32 2
  %20 = load i8, ptr %19, align 1, !tbaa !35
  %21 = zext i8 %20 to i32
  store i32 %21, ptr %5, align 4, !tbaa !32
  %22 = load ptr, ptr %2, align 8, !tbaa !4
  %23 = getelementptr inbounds nuw %struct.jit_State, ptr %22, i32 0, i32 40
  %24 = load i32, ptr %5, align 4, !tbaa !32
  %25 = zext i32 %24 to i64
  %26 = getelementptr inbounds nuw [101 x i16], ptr %23, i64 0, i64 %25
  %27 = load i16, ptr %26, align 2, !tbaa !36
  %28 = load ptr, ptr %4, align 8, !tbaa !30
  %29 = getelementptr inbounds nuw %struct.anon, ptr %28, i32 0, i32 3
  store i16 %27, ptr %29, align 2, !tbaa !35
  %30 = load i32, ptr %3, align 4, !tbaa !32
  %31 = trunc i32 %30 to i16
  %32 = load ptr, ptr %2, align 8, !tbaa !4
  %33 = getelementptr inbounds nuw %struct.jit_State, ptr %32, i32 0, i32 40
  %34 = load i32, ptr %5, align 4, !tbaa !32
  %35 = zext i32 %34 to i64
  %36 = getelementptr inbounds nuw [101 x i16], ptr %33, i64 0, i64 %35
  store i16 %31, ptr %36, align 2, !tbaa !36
  %37 = load i32, ptr %5, align 4, !tbaa !32
  %38 = trunc i32 %37 to i8
  %39 = load ptr, ptr %4, align 8, !tbaa !30
  %40 = getelementptr inbounds nuw %struct.anon.0, ptr %39, i32 0, i32 2
  store i8 %38, ptr %40, align 1, !tbaa !35
  %41 = load ptr, ptr %2, align 8, !tbaa !4
  %42 = getelementptr inbounds nuw %struct.jit_State, ptr %41, i32 0, i32 14
  %43 = getelementptr inbounds nuw %struct.FoldState, ptr %42, i32 0, i32 0
  %44 = getelementptr inbounds nuw %struct.anon, ptr %43, i32 0, i32 0
  %45 = load i16, ptr %44, align 8, !tbaa !35
  %46 = load ptr, ptr %4, align 8, !tbaa !30
  %47 = getelementptr inbounds nuw %struct.anon, ptr %46, i32 0, i32 0
  store i16 %45, ptr %47, align 8, !tbaa !35
  %48 = load ptr, ptr %2, align 8, !tbaa !4
  %49 = getelementptr inbounds nuw %struct.jit_State, ptr %48, i32 0, i32 14
  %50 = getelementptr inbounds nuw %struct.FoldState, ptr %49, i32 0, i32 0
  %51 = getelementptr inbounds nuw %struct.anon, ptr %50, i32 0, i32 1
  %52 = load i16, ptr %51, align 2, !tbaa !35
  %53 = load ptr, ptr %4, align 8, !tbaa !30
  %54 = getelementptr inbounds nuw %struct.anon, ptr %53, i32 0, i32 1
  store i16 %52, ptr %54, align 2, !tbaa !35
  %55 = load ptr, ptr %2, align 8, !tbaa !4
  %56 = getelementptr inbounds nuw %struct.jit_State, ptr %55, i32 0, i32 14
  %57 = getelementptr inbounds nuw %struct.FoldState, ptr %56, i32 0, i32 0
  %58 = getelementptr inbounds nuw %struct.anon.0, ptr %57, i32 0, i32 1
  %59 = getelementptr inbounds nuw %struct.IRType1, ptr %58, i32 0, i32 0
  %60 = load i8, ptr %59, align 4, !tbaa !35
  %61 = zext i8 %60 to i32
  %62 = load ptr, ptr %2, align 8, !tbaa !4
  %63 = getelementptr inbounds nuw %struct.jit_State, ptr %62, i32 0, i32 12
  %64 = getelementptr inbounds nuw %struct.IRType1, ptr %63, i32 0, i32 0
  %65 = load i8, ptr %64, align 2, !tbaa !37
  %66 = zext i8 %65 to i32
  %67 = or i32 %66, %61
  %68 = trunc i32 %67 to i8
  store i8 %68, ptr %64, align 2, !tbaa !37
  %69 = load i32, ptr %3, align 4, !tbaa !32
  %70 = load ptr, ptr %4, align 8, !tbaa !30
  %71 = getelementptr inbounds nuw %struct.anon.0, ptr %70, i32 0, i32 1
  %72 = load ptr, ptr %2, align 8, !tbaa !4
  %73 = getelementptr inbounds nuw %struct.jit_State, ptr %72, i32 0, i32 14
  %74 = getelementptr inbounds nuw %struct.FoldState, ptr %73, i32 0, i32 0
  %75 = getelementptr inbounds nuw %struct.anon.0, ptr %74, i32 0, i32 1
  call void @llvm.memcpy.p0.p0.i64(ptr align 4 %71, ptr align 4 %75, i64 1, i1 false), !tbaa.struct !38
  call void @llvm.memcpy.p0.p0.i64(ptr align 1 %6, ptr align 4 %71, i64 1, i1 false), !tbaa.struct !38
  %76 = getelementptr inbounds nuw %struct.IRType1, ptr %6, i32 0, i32 0
  %77 = load i8, ptr %76, align 1, !tbaa !39
  %78 = zext i8 %77 to i32
  %79 = shl i32 %78, 24
  %80 = add i32 %69, %79
  call void @llvm.lifetime.end.p0(i64 4, ptr %5) #10
  call void @llvm.lifetime.end.p0(i64 8, ptr %4) #10
  call void @llvm.lifetime.end.p0(i64 4, ptr %3) #10
  ret i32 %80
}