; Function Attrs: nounwind uwtable
define hidden i32 @lj_ir_emit(ptr noundef captures(none) %0) local_unnamed_addr #6 {
  %2 = getelementptr inbounds nuw i8, ptr %0, i64 12
  %3 = load i32, ptr %2, align 4, !tbaa !31
  %4 = getelementptr inbounds nuw i8, ptr %0, i64 336
  %5 = load i32, ptr %4, align 8, !tbaa !27
  %.not.i = icmp ult i32 %3, %5
  br i1 %.not.i, label %lj_ir_nextins.exit, label %6, !prof !32

6:                                                ; preds = %1
  tail call void @lj_ir_growtop(ptr noundef nonnull %0)
  br label %lj_ir_nextins.exit

lj_ir_nextins.exit:                               ; preds = %1, %6
  %7 = add i32 %3, 1
  store i32 %7, ptr %2, align 4, !tbaa !31
  %8 = getelementptr inbounds nuw i8, ptr %0, i64 32
  %9 = load ptr, ptr %8, align 8, !tbaa !30
  %10 = zext i32 %3 to i64
  %11 = getelementptr inbounds nuw %union.IRIns, ptr %9, i64 %10
  %12 = getelementptr inbounds nuw i8, ptr %0, i64 184
  %13 = getelementptr inbounds nuw i8, ptr %0, i64 189
  %14 = load i8, ptr %13, align 1, !tbaa !33
  %15 = getelementptr inbounds nuw i8, ptr %0, i64 402
  %16 = zext i8 %14 to i64
  %17 = getelementptr inbounds nuw [101 x i16], ptr %15, i64 0, i64 %16
  %18 = load i16, ptr %17, align 2, !tbaa !34
  %19 = getelementptr inbounds nuw i8, ptr %11, i64 6
  store i16 %18, ptr %19, align 2, !tbaa !33
  %20 = trunc i32 %3 to i16
  store i16 %20, ptr %17, align 2, !tbaa !34
  %21 = getelementptr inbounds nuw i8, ptr %11, i64 5
  store i8 %14, ptr %21, align 1, !tbaa !33
  %22 = load i16, ptr %12, align 8, !tbaa !33
  store i16 %22, ptr %11, align 8, !tbaa !33
  %23 = getelementptr inbounds nuw i8, ptr %0, i64 186
  %24 = load i16, ptr %23, align 2, !tbaa !33
  %25 = getelementptr inbounds nuw i8, ptr %11, i64 2
  store i16 %24, ptr %25, align 2, !tbaa !33
  %26 = getelementptr inbounds nuw i8, ptr %0, i64 188
  %27 = load i8, ptr %26, align 4, !tbaa !33
  %28 = getelementptr inbounds nuw i8, ptr %0, i64 182
  %29 = load i8, ptr %28, align 2, !tbaa !35
  %30 = or i8 %29, %27
  store i8 %30, ptr %28, align 2, !tbaa !35
  %31 = getelementptr inbounds nuw i8, ptr %11, i64 4
  store i8 %27, ptr %31, align 4, !tbaa !33
  %32 = zext i8 %27 to i32
  %33 = shl nuw i32 %32, 24
  %34 = add i32 %33, %3
  ret i32 %34
}